target datalayout = "e-m:e-p270:32:32-p271:32:32-p272:64:64-i64:64-i128:128-f80:128-n8:16:32:64-S128"
target triple = "x86_64-pc-linux-gnu"

%struct._packet_info = type { ptr, ptr, i32, i32, %struct.nstime_t, %struct.nstime_t, %struct.nstime_t, i8, ptr, ptr, ptr, ptr, %struct._address, %struct._address, %struct._address, %struct._address, %struct._address, %struct._address, i32, ptr, i8, [3 x i8], %struct.anon, i32, i32, i32, i32, ptr, i8, ptr, ptr, i16, i16, i32, i32, i16, i32, i32, ptr, ptr, ptr, i8, i8, i16, i16, i16, i32, i16, i16, ptr, ptr, ptr, ptr, ptr, i32, i32 }
%struct.nstime_t = type { i64, i32 }
%struct._address = type { i32, i32, ptr, ptr }
%struct.anon = type { i8, [3 x i8] }

@hf_msmms_command_prefix1_error = internal global i32 0, align 4
@hf_msmms_command_prefix2 = internal global i32 0, align 4
@hf_msmms_command_server_version_length = internal global i32 0, align 4
@hf_msmms_command_tool_version_length = internal global i32 0, align 4
@hf_msmms_command_update_url_length = internal global i32 0, align 4
@hf_msmms_command_password_type_length = internal global i32 0, align 4
@hf_msmms_command_server_version = internal global i32 0, align 4
@hf_msmms_command_tool_version = internal global i32 0, align 4
@hf_msmms_command_update_url = internal global i32 0, align 4
@hf_msmms_command_password_type = internal global i32 0, align 4
@.str.192 = private unnamed_addr constant [16 x i8] c" (version='%s')\00", align 1

; Function Attrs: null_pointer_is_valid sspstrong uwtable
define internal void @dissect_server_info(ptr noundef %0, ptr noundef %1, ptr noundef %2, i32 noundef %3) #0 {
  %5 = alloca ptr, align 8
  %6 = alloca ptr, align 8
  %7 = alloca ptr, align 8
  %8 = alloca i32, align 4
  %9 = alloca i32, align 4
  %10 = alloca i32, align 4
  %11 = alloca i32, align 4
  %12 = alloca i32, align 4
  %13 = alloca ptr, align 8
  store ptr %0, ptr %5, align 8
  store ptr %1, ptr %6, align 8
  store ptr %2, ptr %7, align 8
  store i32 %3, ptr %8, align 4
  call void @llvm.lifetime.start.p0(i64 4, ptr %9) #7
  call void @llvm.lifetime.start.p0(i64 4, ptr %10) #7
  call void @llvm.lifetime.start.p0(i64 4, ptr %11) #7
  call void @llvm.lifetime.start.p0(i64 4, ptr %12) #7
  call void @llvm.lifetime.start.p0(i64 8, ptr %13) #7
  %14 = load ptr, ptr %7, align 8
  %15 = load i32, ptr @hf_msmms_command_prefix1_error, align 4
  %16 = load ptr, ptr %5, align 8
  %17 = load i32, ptr %8, align 4
  %18 = call ptr @proto_tree_add_item(ptr noundef %14, i32 noundef %15, ptr noundef %16, i32 noundef %17, i32 noundef 4, i32 noundef -2147483648)
  %19 = load i32, ptr %8, align 4
  %20 = add i32 %19, 4
  store i32 %20, ptr %8, align 4
  %21 = load ptr, ptr %7, align 8
  %22 = load i32, ptr @hf_msmms_command_prefix2, align 4
  %23 = load ptr, ptr %5, align 8
  %24 = load i32, ptr %8, align 4
  %25 = call ptr @proto_tree_add_item(ptr noundef %21, i32 noundef %22, ptr noundef %23, i32 noundef %24, i32 noundef 4, i32 noundef -2147483648)
  %26 = load i32, ptr %8, align 4
  %27 = add i32 %26, 4
  store i32 %27, ptr %8, align 4
  %28 = load i32, ptr %8, align 4
  %29 = add i32 %28, 4
  store i32 %29, ptr %8, align 4
  %30 = load i32, ptr %8, align 4
  %31 = add i32 %30, 4
  store i32 %31, ptr %8, align 4
  %32 = load i32, ptr %8, align 4
  %33 = add i32 %32, 4
  store i32 %33, ptr %8, align 4
  %34 = load i32, ptr %8, align 4
  %35 = add i32 %34, 4
  store i32 %35, ptr %8, align 4
  %36 = load i32, ptr %8, align 4
  %37 = add i32 %36, 4
  store i32 %37, ptr %8, align 4
  %38 = load i32, ptr %8, align 4
  %39 = add i32 %38, 4
  store i32 %39, ptr %8, align 4
  %40 = load i32, ptr %8, align 4
  %41 = add i32 %40, 4
  store i32 %41, ptr %8, align 4
  %42 = load i32, ptr %8, align 4
  %43 = add i32 %42, 4
  store i32 %43, ptr %8, align 4
  %44 = load ptr, ptr %5, align 8
  %45 = load i32, ptr %8, align 4
  %46 = call i32 @tvb_get_letohl(ptr noundef %44, i32 noundef %45)
  store i32 %46, ptr %9, align 4
  %47 = load ptr, ptr %7, align 8
  %48 = load i32, ptr @hf_msmms_command_server_version_length, align 4
  %49 = load ptr, ptr %5, align 8
  %50 = load i32, ptr %8, align 4
  %51 = call ptr @proto_tree_add_item(ptr noundef %47, i32 noundef %48, ptr noundef %49, i32 noundef %50, i32 noundef 4, i32 noundef -2147483648)
  %52 = load i32, ptr %8, align 4
  %53 = add i32 %52, 4
  store i32 %53, ptr %8, align 4
  %54 = load ptr, ptr %5, align 8
  %55 = load i32, ptr %8, align 4
  %56 = call i32 @tvb_get_letohl(ptr noundef %54, i32 noundef %55)
  store i32 %56, ptr %10, align 4
  %57 = load ptr, ptr %7, align 8
  %58 = load i32, ptr @hf_msmms_command_tool_version_length, align 4
  %59 = load ptr, ptr %5, align 8
  %60 = load i32, ptr %8, align 4
  %61 = call ptr @proto_tree_add_item(ptr noundef %57, i32 noundef %58, ptr noundef %59, i32 noundef %60, i32 noundef 4, i32 noundef -2147483648)
  %62 = load i32, ptr %8, align 4
  %63 = add i32 %62, 4
  store i32 %63, ptr %8, align 4
  %64 = load ptr, ptr %5, align 8
  %65 = load i32, ptr %8, align 4
  %66 = call i32 @tvb_get_letohl(ptr noundef %64, i32 noundef %65)
  store i32 %66, ptr %11, align 4
  %67 = load ptr, ptr %7, align 8
  %68 = load i32, ptr @hf_msmms_command_update_url_length, align 4
  %69 = load ptr, ptr %5, align 8
  %70 = load i32, ptr %8, align 4
  %71 = call ptr @proto_tree_add_item(ptr noundef %67, i32 noundef %68, ptr noundef %69, i32 noundef %70, i32 noundef 4, i32 noundef -2147483648)
  %72 = load i32, ptr %8, align 4
  %73 = add i32 %72, 4
  store i32 %73, ptr %8, align 4
  %74 = load ptr, ptr %5, align 8
  %75 = load i32, ptr %8, align 4
  %76 = call i32 @tvb_get_letohl(ptr noundef %74, i32 noundef %75)
  store i32 %76, ptr %12, align 4
  %77 = load ptr, ptr %7, align 8
  %78 = load i32, ptr @hf_msmms_command_password_type_length, align 4
  %79 = load ptr, ptr %5, align 8
  %80 = load i32, ptr %8, align 4
  %81 = call ptr @proto_tree_add_item(ptr noundef %77, i32 noundef %78, ptr noundef %79, i32 noundef %80, i32 noundef 4, i32 noundef -2147483648)
  %82 = load i32, ptr %8, align 4
  %83 = add i32 %82, 4
  store i32 %83, ptr %8, align 4
  %84 = load i32, ptr %9, align 4
  %85 = icmp ugt i32 %84, 1
  br i1 %85, label %86, label %105

86:                                               ; preds = %4
  %87 = load ptr, ptr %7, align 8
  %88 = load i32, ptr @hf_msmms_command_server_version, align 4
  %89 = load ptr, ptr %5, align 8
  %90 = load i32, ptr %8, align 4
  %91 = load i32, ptr %9, align 4
  %92 = mul i32 %91, 2
  %93 = load ptr, ptr %6, align 8
  %94 = getelementptr inbounds nuw %struct._packet_info, ptr %93, i32 0, i32 51
  %95 = load ptr, ptr %94, align 8
  %96 = call ptr @proto_tree_add_item_ret_string(ptr noundef %87, i32 noundef %88, ptr noundef %89, i32 noundef %90, i32 noundef %92, i32 noundef -2147483644, ptr noundef %95, ptr noundef %13)
  %97 = load ptr, ptr %6, align 8
  %98 = getelementptr inbounds nuw %struct._packet_info, ptr %97, i32 0, i32 1
  %99 = load ptr, ptr %98, align 8
  %100 = load ptr, ptr %6, align 8
  %101 = getelementptr inbounds nuw %struct._packet_info, ptr %100, i32 0, i32 51
  %102 = load ptr, ptr %101, align 8
  %103 = load ptr, ptr %13, align 8
  %104 = call ptr @format_text_string(ptr noundef %102, ptr noundef %103)
  call void (ptr, i32, ptr, ...) @col_append_fstr(ptr noundef %99, i32 noundef 25, ptr noundef @.str.192, ptr noundef %104)
  br label %105

105:                                              ; preds = %86, %4
  %106 = load i32, ptr %9, align 4
  %107 = mul i32 %106, 2
  %108 = load i32, ptr %8, align 4
  %109 = add i32 %108, %107
  store i32 %109, ptr %8, align 4
  %110 = load i32, ptr %10, align 4
  %111 = icmp ugt i32 %110, 1
  br i1 %111, label %112, label %120

112:                                              ; preds = %105
  %113 = load ptr, ptr %7, align 8
  %114 = load i32, ptr @hf_msmms_command_tool_version, align 4
  %115 = load ptr, ptr %5, align 8
  %116 = load i32, ptr %8, align 4
  %117 = load i32, ptr %10, align 4
  %118 = mul i32 %117, 2
  %119 = call ptr @proto_tree_add_item(ptr noundef %113, i32 noundef %114, ptr noundef %115, i32 noundef %116, i32 noundef %118, i32 noundef -2147483644)
  br label %120

120:                                              ; preds = %112, %105
  %121 = load i32, ptr %10, align 4
  %122 = mul i32 %121, 2
  %123 = load i32, ptr %8, align 4
  %124 = add i32 %123, %122
  store i32 %124, ptr %8, align 4
  %125 = load i32, ptr %11, align 4
  %126 = icmp ugt i32 %125, 1
  br i1 %126, label %127, label %135

127:                                              ; preds = %120
  %128 = load ptr, ptr %7, align 8
  %129 = load i32, ptr @hf_msmms_command_update_url, align 4
  %130 = load ptr, ptr %5, align 8
  %131 = load i32, ptr %8, align 4
  %132 = load i32, ptr %11, align 4
  %133 = mul i32 %132, 2
  %134 = call ptr @proto_tree_add_item(ptr noundef %128, i32 noundef %129, ptr noundef %130, i32 noundef %131, i32 noundef %133, i32 noundef -2147483644)
  br label %135

135:                                              ; preds = %127, %120
  %136 = load i32, ptr %11, align 4
  %137 = mul i32 %136, 2
  %138 = load i32, ptr %8, align 4
  %139 = add i32 %138, %137
  store i32 %139, ptr %8, align 4
  %140 = load i32, ptr %12, align 4
  %141 = icmp ugt i32 %140, 1
  br i1 %141, label %142, label %150

142:                                              ; preds = %135
  %143 = load ptr, ptr %7, align 8
  %144 = load i32, ptr @hf_msmms_command_password_type, align 4
  %145 = load ptr, ptr %5, align 8
  %146 = load i32, ptr %8, align 4
  %147 = load i32, ptr %12, align 4
  %148 = mul i32 %147, 2
  %149 = call ptr @proto_tree_add_item(ptr noundef %143, i32 noundef %144, ptr noundef %145, i32 noundef %146, i32 noundef %148, i32 noundef -2147483644)
  br label %150

150:                                              ; preds = %142, %135
  call void @llvm.lifetime.end.p0(i64 8, ptr %13) #7
  call void @llvm.lifetime.end.p0(i64 4, ptr %12) #7
  call void @llvm.lifetime.end.p0(i64 4, ptr %11) #7
  call void @llvm.lifetime.end.p0(i64 4, ptr %10) #7
  call void @llvm.lifetime.end.p0(i64 4, ptr %9) #7
  ret void
}