; Function Attrs: null_pointer_is_valid sspstrong uwtable
define internal fastcc void @dissect_server_info(ptr noundef %0, ptr noundef readonly captures(none) %1, ptr noundef %2) unnamed_addr #0 {
  %4 = alloca ptr, align 8
  call void @llvm.lifetime.start.p0(i64 8, ptr nonnull %4) #6
  %5 = load i32, ptr @hf_msmms_command_prefix1_error, align 4
  %6 = tail call ptr @proto_tree_add_item(ptr noundef %2, i32 noundef %5, ptr noundef %0, i32 noundef 40, i32 noundef 4, i32 noundef -2147483648)
  %7 = load i32, ptr @hf_msmms_command_prefix2, align 4
  %8 = tail call ptr @proto_tree_add_item(ptr noundef %2, i32 noundef %7, ptr noundef %0, i32 noundef 44, i32 noundef 4, i32 noundef -2147483648)
  %9 = tail call i32 @tvb_get_letohl(ptr noundef %0, i32 noundef 80)
  %10 = load i32, ptr @hf_msmms_command_server_version_length, align 4
  %11 = tail call ptr @proto_tree_add_item(ptr noundef %2, i32 noundef %10, ptr noundef %0, i32 noundef 80, i32 noundef 4, i32 noundef -2147483648)
  %12 = tail call i32 @tvb_get_letohl(ptr noundef %0, i32 noundef 84)
  %13 = load i32, ptr @hf_msmms_command_tool_version_length, align 4
  %14 = tail call ptr @proto_tree_add_item(ptr noundef %2, i32 noundef %13, ptr noundef %0, i32 noundef 84, i32 noundef 4, i32 noundef -2147483648)
  %15 = tail call i32 @tvb_get_letohl(ptr noundef %0, i32 noundef 88)
  %16 = load i32, ptr @hf_msmms_command_update_url_length, align 4
  %17 = tail call ptr @proto_tree_add_item(ptr noundef %2, i32 noundef %16, ptr noundef %0, i32 noundef 88, i32 noundef 4, i32 noundef -2147483648)
  %18 = tail call i32 @tvb_get_letohl(ptr noundef %0, i32 noundef 92)
  %19 = load i32, ptr @hf_msmms_command_password_type_length, align 4
  %20 = tail call ptr @proto_tree_add_item(ptr noundef %2, i32 noundef %19, ptr noundef %0, i32 noundef 92, i32 noundef 4, i32 noundef -2147483648)
  %21 = icmp ugt i32 %9, 1
  br i1 %21, label %22, label %33

22:                                               ; preds = %3
  %23 = load i32, ptr @hf_msmms_command_server_version, align 4
  %24 = shl i32 %9, 1
  %25 = getelementptr inbounds nuw i8, ptr %1, i64 408
  %26 = load ptr, ptr %25, align 8
  %27 = call ptr @proto_tree_add_item_ret_string(ptr noundef %2, i32 noundef %23, ptr noundef %0, i32 noundef 96, i32 noundef %24, i32 noundef -2147483644, ptr noundef %26, ptr noundef nonnull %4)
  %28 = getelementptr inbounds nuw i8, ptr %1, i64 8
  %29 = load ptr, ptr %28, align 8
  %30 = load ptr, ptr %25, align 8
  %31 = load ptr, ptr %4, align 8
  %32 = call ptr @format_text_string(ptr noundef %30, ptr noundef %31)
  call void (ptr, i32, ptr, ...) @col_append_fstr(ptr noundef %29, i32 noundef 25, ptr noundef nonnull @.str.192, ptr noundef %32)
  br label %33

33:                                               ; preds = %22, %3
  %34 = icmp ugt i32 %12, 1
  br i1 %34, label %35, label %41

35:                                               ; preds = %33
  %36 = shl i32 %9, 1
  %37 = add i32 %36, 96
  %38 = load i32, ptr @hf_msmms_command_tool_version, align 4
  %39 = shl i32 %12, 1
  %40 = call ptr @proto_tree_add_item(ptr noundef %2, i32 noundef %38, ptr noundef %0, i32 noundef %37, i32 noundef %39, i32 noundef -2147483644)
  br label %41

41:                                               ; preds = %35, %33
  %42 = add i32 %12, %9
  %43 = icmp ugt i32 %15, 1
  br i1 %43, label %44, label %50

44:                                               ; preds = %41
  %45 = shl i32 %42, 1
  %46 = add i32 %45, 96
  %47 = load i32, ptr @hf_msmms_command_update_url, align 4
  %48 = shl i32 %15, 1
  %49 = call ptr @proto_tree_add_item(ptr noundef %2, i32 noundef %47, ptr noundef %0, i32 noundef %46, i32 noundef %48, i32 noundef -2147483644)
  br label %50

50:                                               ; preds = %44, %41
  %51 = icmp ugt i32 %18, 1
  br i1 %51, label %52, label %59

52:                                               ; preds = %50
  %53 = add i32 %15, %42
  %54 = shl i32 %53, 1
  %55 = add i32 %54, 96
  %56 = load i32, ptr @hf_msmms_command_password_type, align 4
  %57 = shl i32 %18, 1
  %58 = call ptr @proto_tree_add_item(ptr noundef %2, i32 noundef %56, ptr noundef %0, i32 noundef %55, i32 noundef %57, i32 noundef -2147483644)
  br label %59

59:                                               ; preds = %52, %50
  call void @llvm.lifetime.end.p0(i64 8, ptr nonnull %4) #6
  ret void
}